target datalayout = "e-m:e-p270:32:32-p271:32:32-p272:64:64-i64:64-i128:128-f80:128-n8:16:32:64-S128"
target triple = "x86_64-pc-linux-gnu"

%struct.bz_stream = type { ptr, i32, i32, i32, ptr, i32, i32, i32, ptr, ptr, ptr, ptr }

@.str.59 = private unnamed_addr constant [41 x i8] c"cli_egg_bzip2_decompress: Invalid args!\0A\00", align 1
@.str.60 = private unnamed_addr constant [74 x i8] c"cli_egg_bzip2_decompress: cannot allocate memory for decompressed output\0A\00", align 1
@.str.61 = private unnamed_addr constant [41 x i8] c"cli_egg_bzip2_decompress: bzinit failed\0A\00", align 1
@.str.62 = private unnamed_addr constant [53 x i8] c"cli_egg_bzip2_decompress: failed to decompress data\0A\00", align 1
@.str.63 = private unnamed_addr constant [76 x i8] c"cli_egg_bzip2_decompress: cannot reallocate memory for decompressed output\0A\00", align 1
@.str.64 = private unnamed_addr constant [57 x i8] c"cli_egg_bzip2_decompress: BZ_OK on stream decompression\0A\00", align 1
@.str.65 = private unnamed_addr constant [93 x i8] c"cli_egg_bzip2_decompress: decompressed %lu bytes from %lu total bytes (%lu bytes remaining)\0A\00", align 1
@.str.66 = private unnamed_addr constant [71 x i8] c"cli_egg_bzip2_decompress: after decompressing %lu bytes, got error %d\0A\00", align 1
@.str.67 = private unnamed_addr constant [55 x i8] c"cli_egg_bzip2_decompress: no bytes were decompressed.\0A\00", align 1

; Function Attrs: nounwind uwtable
define i32 @cli_egg_bzip2_decompress(ptr noundef %0, i64 noundef %1, ptr noundef %2, ptr noundef %3) #0 {
  %5 = alloca ptr, align 8
  %6 = alloca i64, align 8
  %7 = alloca ptr, align 8
  %8 = alloca ptr, align 8
  %9 = alloca i32, align 4
  %10 = alloca ptr, align 8
  %11 = alloca i32, align 4
  %12 = alloca i32, align 4
  %13 = alloca %struct.bz_stream, align 8
  %14 = alloca i32, align 4
  %15 = alloca ptr, align 8
  store ptr %0, ptr %5, align 8
  store i64 %1, ptr %6, align 8
  store ptr %2, ptr %7, align 8
  store ptr %3, ptr %8, align 8
  store i32 27, ptr %9, align 4
  store ptr null, ptr %10, align 8
  store i32 0, ptr %11, align 4
  store i32 0, ptr %12, align 4
  %16 = load ptr, ptr %5, align 8
  %17 = icmp eq ptr null, %16
  br i1 %17, label %27, label %18

18:                                               ; preds = %4
  %19 = load i64, ptr %6, align 8
  %20 = icmp eq i64 %19, 0
  br i1 %20, label %27, label %21

21:                                               ; preds = %18
  %22 = load ptr, ptr %7, align 8
  %23 = icmp eq ptr null, %22
  br i1 %23, label %27, label %24

24:                                               ; preds = %21
  %25 = load ptr, ptr %8, align 8
  %26 = icmp eq ptr null, %25
  br i1 %26, label %27, label %28

27:                                               ; preds = %24, %21, %18, %4
  call void (ptr, ...) @cli_errmsg(ptr noundef @.str.59)
  store i32 3, ptr %9, align 4
  br label %126

28:                                               ; preds = %24
  %29 = load ptr, ptr %7, align 8
  store ptr null, ptr %29, align 8
  %30 = load ptr, ptr %8, align 8
  store i64 0, ptr %30, align 8
  %31 = call noalias ptr @calloc(i64 noundef 8192, i64 noundef 1) #6
  store ptr %31, ptr %10, align 8
  %32 = icmp ne ptr %31, null
  br i1 %32, label %34, label %33

33:                                               ; preds = %28
  call void (ptr, ...) @cli_errmsg(ptr noundef @.str.60)
  store i32 20, ptr %9, align 4
  br label %126

34:                                               ; preds = %28
  store i32 8192, ptr %12, align 4
  call void @llvm.memset.p0.i64(ptr align 8 %13, i8 0, i64 80, i1 false)
  %35 = load ptr, ptr %5, align 8
  %36 = getelementptr inbounds %struct.bz_stream, ptr %13, i32 0, i32 0
  store ptr %35, ptr %36, align 8
  %37 = load i64, ptr %6, align 8
  %38 = trunc i64 %37 to i32
  %39 = getelementptr inbounds %struct.bz_stream, ptr %13, i32 0, i32 1
  store i32 %38, ptr %39, align 8
  %40 = load ptr, ptr %10, align 8
  %41 = getelementptr inbounds %struct.bz_stream, ptr %13, i32 0, i32 4
  store ptr %40, ptr %41, align 8
  %42 = getelementptr inbounds %struct.bz_stream, ptr %13, i32 0, i32 5
  store i32 8192, ptr %42, align 8
  %43 = call i32 @BZ2_bzDecompressInit(ptr noundef %13, i32 noundef 0, i32 noundef 0)
  store i32 %43, ptr %14, align 4
  %44 = icmp ne i32 0, %43
  br i1 %44, label %45, label %46

45:                                               ; preds = %34
  call void (ptr, ...) @cli_warnmsg(ptr noundef @.str.61)
  store i32 20, ptr %9, align 4
  br label %126

46:                                               ; preds = %34
  %47 = call i32 @BZ2_bzDecompress(ptr noundef %13)
  store i32 %47, ptr %14, align 4
  %48 = load i32, ptr %14, align 4
  %49 = icmp ne i32 %48, 0
  br i1 %49, label %50, label %55

50:                                               ; preds = %46
  %51 = getelementptr inbounds %struct.bz_stream, ptr %13, i32 0, i32 5
  %52 = load i32, ptr %51, align 8
  %53 = icmp eq i32 %52, 8192
  br i1 %53, label %54, label %55

54:                                               ; preds = %50
  call void (ptr, ...) @cli_errmsg(ptr noundef @.str.62)
  store i32 27, ptr %9, align 4
  br label %126

55:                                               ; preds = %50, %46
  br label %56

56:                                               ; preds = %94, %55
  %57 = load i32, ptr %14, align 4
  %58 = icmp eq i32 %57, 0
  br i1 %58, label %59, label %63

59:                                               ; preds = %56
  %60 = getelementptr inbounds %struct.bz_stream, ptr %13, i32 0, i32 1
  %61 = load i32, ptr %60, align 8
  %62 = icmp ne i32 %61, 0
  br label %63

63:                                               ; preds = %59, %56
  %64 = phi i1 [ false, %56 ], [ %62, %59 ]
  br i1 %64, label %65, label %96

65:                                               ; preds = %63
  %66 = getelementptr inbounds %struct.bz_stream, ptr %13, i32 0, i32 5
  %67 = load i32, ptr %66, align 8
  %68 = icmp eq i32 %67, 0
  br i1 %68, label %69, label %94

69:                                               ; preds = %65
  br label %70

70:                                               ; preds = %69
  %71 = load ptr, ptr %10, align 8
  %72 = load i32, ptr %12, align 4
  %73 = add i32 %72, 8192
  %74 = zext i32 %73 to i64
  %75 = call ptr @cli_safer_realloc(ptr noundef %71, i64 noundef %74)
  store ptr %75, ptr %15, align 8
  %76 = load ptr, ptr %15, align 8
  %77 = icmp eq ptr null, %76
  br i1 %77, label %78, label %81

78:                                               ; preds = %70
  br label %79

79:                                               ; preds = %78
  call void (ptr, ...) @cli_errmsg(ptr noundef @.str.63)
  store i32 20, ptr %9, align 4
  br label %80

80:                                               ; preds = %79
  br label %126

81:                                               ; preds = %70
  %82 = load ptr, ptr %15, align 8
  store ptr %82, ptr %10, align 8
  br label %83

83:                                               ; preds = %81
  %84 = load ptr, ptr %10, align 8
  %85 = load i32, ptr %12, align 4
  %86 = zext i32 %85 to i64
  %87 = getelementptr inbounds i8, ptr %84, i64 %86
  %88 = getelementptr inbounds %struct.bz_stream, ptr %13, i32 0, i32 4
  store ptr %87, ptr %88, align 8
  %89 = getelementptr inbounds %struct.bz_stream, ptr %13, i32 0, i32 5
  store i32 8192, ptr %89, align 8
  %90 = load i32, ptr %11, align 4
  %91 = add i32 %90, 8192
  store i32 %91, ptr %11, align 4
  %92 = load i32, ptr %12, align 4
  %93 = add i32 %92, 8192
  store i32 %93, ptr %12, align 4
  br label %94

94:                                               ; preds = %83, %65
  %95 = call i32 @BZ2_bzDecompress(ptr noundef %13)
  store i32 %95, ptr %14, align 4
  br label %56

96:                                               ; preds = %63
  %97 = getelementptr inbounds %struct.bz_stream, ptr %13, i32 0, i32 5
  %98 = load i32, ptr %97, align 8
  %99 = sub i32 8192, %98
  %100 = load i32, ptr %11, align 4
  %101 = add i32 %100, %99
  store i32 %101, ptr %11, align 4
  %102 = load i32, ptr %14, align 4
  switch i32 %102, label %112 [
    i32 0, label %103
    i32 4, label %104
    i32 -4, label %111
    i32 -3, label %111
  ]

103:                                              ; preds = %96
  call void (ptr, ...) @cli_dbgmsg(ptr noundef @.str.64)
  br label %104

104:                                              ; preds = %103, %96
  %105 = load i32, ptr %11, align 4
  %106 = zext i32 %105 to i64
  %107 = load i64, ptr %6, align 8
  %108 = getelementptr inbounds %struct.bz_stream, ptr %13, i32 0, i32 1
  %109 = load i32, ptr %108, align 8
  %110 = zext i32 %109 to i64
  call void (ptr, ...) @cli_dbgmsg(ptr noundef @.str.65, i64 noundef %106, i64 noundef %107, i64 noundef %110)
  br label %120

111:                                              ; preds = %96, %96
  br label %112

112:                                              ; preds = %111, %96
  %113 = load i32, ptr %11, align 4
  %114 = zext i32 %113 to i64
  %115 = load i32, ptr %14, align 4
  call void (ptr, ...) @cli_dbgmsg(ptr noundef @.str.66, i64 noundef %114, i32 noundef %115)
  %116 = load i32, ptr %11, align 4
  %117 = icmp eq i32 %116, 0
  br i1 %117, label %118, label %119

118:                                              ; preds = %112
  call void (ptr, ...) @cli_dbgmsg(ptr noundef @.str.67)
  store i32 27, ptr %9, align 4
  br label %119

119:                                              ; preds = %118, %112
  br label %120

120:                                              ; preds = %119, %104
  %121 = load ptr, ptr %10, align 8
  %122 = load ptr, ptr %7, align 8
  store ptr %121, ptr %122, align 8
  store ptr null, ptr %10, align 8
  %123 = load i32, ptr %11, align 4
  %124 = zext i32 %123 to i64
  %125 = load ptr, ptr %8, align 8
  store i64 %124, ptr %125, align 8
  store i32 0, ptr %9, align 4
  br label %126

126:                                              ; preds = %120, %80, %54, %45, %33, %27
  %127 = call i32 @BZ2_bzDecompressEnd(ptr noundef %13)
  %128 = load ptr, ptr %10, align 8
  %129 = icmp ne ptr null, %128
  br i1 %129, label %130, label %132

130:                                              ; preds = %126
  %131 = load ptr, ptr %10, align 8
  call void @free(ptr noundef %131) #7
  br label %132

132:                                              ; preds = %130, %126
  %133 = load i32, ptr %9, align 4
  ret i32 %133
}