; Function Attrs: nounwind uwtable
define noundef i32 @cli_egg_bzip2_decompress(ptr noundef %0, i64 noundef %1, ptr noundef writeonly %2, ptr noundef writeonly %3) local_unnamed_addr #1 {
  %5 = alloca %struct.bz_stream, align 8
  %6 = icmp eq ptr %0, null
  %7 = icmp eq i64 %1, 0
  %or.cond = or i1 %6, %7
  %8 = icmp eq ptr %2, null
  %or.cond3 = or i1 %or.cond, %8
  %9 = icmp eq ptr %3, null
  %or.cond5 = or i1 %or.cond3, %9
  br i1 %or.cond5, label %10, label %11

10:                                               ; preds = %4
  tail call void (ptr, ...) @cli_errmsg(ptr noundef nonnull @.str.59) #11
  br label %.thread

11:                                               ; preds = %4
  store ptr null, ptr %2, align 8
  store i64 0, ptr %3, align 8
  %12 = tail call noalias dereferenceable_or_null(8192) ptr @calloc(i64 noundef 8192, i64 noundef 1) #12
  %.not = icmp eq ptr %12, null
  br i1 %.not, label %13, label %14

13:                                               ; preds = %11
  tail call void (ptr, ...) @cli_errmsg(ptr noundef nonnull @.str.60) #11
  br label %.thread

14:                                               ; preds = %11
  %15 = getelementptr inbounds i8, ptr %5, i64 8
  call void @llvm.memset.p0.i64(ptr noundef nonnull align 8 dereferenceable(80) %15, i8 0, i64 72, i1 false)
  store ptr %0, ptr %5, align 8
  %16 = trunc i64 %1 to i32
  %17 = getelementptr inbounds i8, ptr %5, i64 8
  store i32 %16, ptr %17, align 8
  %18 = getelementptr inbounds i8, ptr %5, i64 24
  store ptr %12, ptr %18, align 8
  %19 = getelementptr inbounds i8, ptr %5, i64 32
  store i32 8192, ptr %19, align 8
  %20 = call i32 @BZ2_bzDecompressInit(ptr noundef nonnull %5, i32 noundef 0, i32 noundef 0) #11
  %.not53 = icmp eq i32 %20, 0
  br i1 %.not53, label %22, label %21

21:                                               ; preds = %14
  call void (ptr, ...) @cli_warnmsg(ptr noundef nonnull @.str.61) #11
  br label %.thread61

22:                                               ; preds = %14
  %23 = call i32 @BZ2_bzDecompress(ptr noundef nonnull %5) #11
  %24 = icmp ne i32 %23, 0
  %25 = load i32, ptr %19, align 8
  %26 = icmp eq i32 %25, 8192
  %or.cond8 = select i1 %24, i1 %26, i1 false
  br i1 %or.cond8, label %31, label %.preheader

.preheader:                                       ; preds = %22
  %27 = icmp eq i32 %23, 0
  %28 = load i32, ptr %17, align 8
  %29 = icmp ne i32 %28, 0
  %30 = select i1 %27, i1 %29, i1 false
  br i1 %30, label %.lr.ph, label %._crit_edge

31:                                               ; preds = %22
  call void (ptr, ...) @cli_errmsg(ptr noundef nonnull @.str.62) #11
  br label %.thread61

.lr.ph:                                           ; preds = %.preheader, %43
  %.04172 = phi i32 [ %.1, %43 ], [ 8192, %.preheader ]
  %.04271 = phi i32 [ %.143, %43 ], [ 0, %.preheader ]
  %.04470 = phi ptr [ %.145, %43 ], [ %12, %.preheader ]
  %32 = load i32, ptr %19, align 8
  %33 = icmp eq i32 %32, 0
  br i1 %33, label %34, label %43

34:                                               ; preds = %.lr.ph
  %35 = add i32 %.04172, 8192
  %36 = zext i32 %35 to i64
  %37 = call ptr @cli_safer_realloc(ptr noundef %.04470, i64 noundef %36) #11
  %38 = icmp eq ptr %37, null
  br i1 %38, label %64, label %39

39:                                               ; preds = %34
  %40 = zext i32 %.04172 to i64
  %41 = getelementptr inbounds i8, ptr %37, i64 %40
  store ptr %41, ptr %18, align 8
  store i32 8192, ptr %19, align 8
  %42 = add i32 %.04271, 8192
  br label %43

43:                                               ; preds = %39, %.lr.ph
  %.145 = phi ptr [ %37, %39 ], [ %.04470, %.lr.ph ]
  %.143 = phi i32 [ %42, %39 ], [ %.04271, %.lr.ph ]
  %.1 = phi i32 [ %35, %39 ], [ %.04172, %.lr.ph ]
  %44 = call i32 @BZ2_bzDecompress(ptr noundef nonnull %5) #11
  %45 = icmp eq i32 %44, 0
  %46 = load i32, ptr %17, align 8
  %47 = icmp ne i32 %46, 0
  %48 = select i1 %45, i1 %47, i1 false
  br i1 %48, label %.lr.ph, label %._crit_edge.loopexit

._crit_edge.loopexit:                             ; preds = %43
  %.pre = load i32, ptr %19, align 8
  br label %._crit_edge

._crit_edge:                                      ; preds = %._crit_edge.loopexit, %.preheader
  %49 = phi i32 [ %28, %.preheader ], [ %46, %._crit_edge.loopexit ]
  %50 = phi i32 [ %25, %.preheader ], [ %.pre, %._crit_edge.loopexit ]
  %.044.lcssa = phi ptr [ %12, %.preheader ], [ %.145, %._crit_edge.loopexit ]
  %.042.lcssa = phi i32 [ 0, %.preheader ], [ %.143, %._crit_edge.loopexit ]
  %.040.lcssa = phi i32 [ %23, %.preheader ], [ %44, %._crit_edge.loopexit ]
  %reass.sub = sub i32 %.042.lcssa, %50
  %51 = add i32 %reass.sub, 8192
  switch i32 %.040.lcssa, label %57 [
    i32 0, label %52
    i32 4, label %53
  ]

52:                                               ; preds = %._crit_edge
  call void (ptr, ...) @cli_dbgmsg(ptr noundef nonnull @.str.64) #11
  %.pre76 = load i32, ptr %17, align 8
  br label %53

53:                                               ; preds = %52, %._crit_edge
  %54 = phi i32 [ %.pre76, %52 ], [ %49, %._crit_edge ]
  %55 = zext i32 %51 to i64
  %56 = zext i32 %54 to i64
  call void (ptr, ...) @cli_dbgmsg(ptr noundef nonnull @.str.65, i64 noundef %55, i64 noundef %1, i64 noundef %56) #11
  br label %61

57:                                               ; preds = %._crit_edge
  %58 = zext i32 %51 to i64
  call void (ptr, ...) @cli_dbgmsg(ptr noundef nonnull @.str.66, i64 noundef %58, i32 noundef %.040.lcssa) #11
  %59 = icmp eq i32 %51, 0
  br i1 %59, label %60, label %61

60:                                               ; preds = %57
  call void (ptr, ...) @cli_dbgmsg(ptr noundef nonnull @.str.67) #11
  br label %61

61:                                               ; preds = %57, %60, %53
  %.pre-phi = phi i64 [ %58, %57 ], [ 0, %60 ], [ %55, %53 ]
  store ptr %.044.lcssa, ptr %2, align 8
  store i64 %.pre-phi, ptr %3, align 8
  br label %.thread

.thread:                                          ; preds = %10, %61, %13
  %.0.ph = phi i32 [ 20, %13 ], [ 0, %61 ], [ 3, %10 ]
  %62 = call i32 @BZ2_bzDecompressEnd(ptr noundef nonnull %5) #11
  br label %67

.thread61:                                        ; preds = %21, %31
  %.0.ph60 = phi i32 [ 27, %31 ], [ 20, %21 ]
  %63 = call i32 @BZ2_bzDecompressEnd(ptr noundef nonnull %5) #11
  br label %66

64:                                               ; preds = %34
  call void (ptr, ...) @cli_errmsg(ptr noundef nonnull @.str.63) #11
  %65 = call i32 @BZ2_bzDecompressEnd(ptr noundef nonnull %5) #11
  %.not54 = icmp eq ptr %.04470, null
  br i1 %.not54, label %67, label %66

66:                                               ; preds = %.thread61, %64
  %.066 = phi i32 [ %.0.ph60, %.thread61 ], [ 20, %64 ]
  %.265 = phi ptr [ %12, %.thread61 ], [ %.04470, %64 ]
  call void @free(ptr noundef nonnull %.265) #11
  br label %67

67:                                               ; preds = %.thread, %66, %64
  %.058 = phi i32 [ %.0.ph, %.thread ], [ %.066, %66 ], [ 20, %64 ]
  ret i32 %.058
}